target datalayout = "e-m:e-p270:32:32-p271:32:32-p272:64:64-i64:64-i128:128-f80:128-n8:16:32:64-S128"
target triple = "x86_64-pc-linux-gnu"

%struct._object = type { %union.anon, ptr }
%union.anon = type { i64 }
%struct.SHA1object = type { %struct._object, i8, %struct.PyMutex, ptr, ptr }
%struct.PyMutex = type { i8 }

; Function Attrs: inlinehint nounwind uwtable
define internal i32 @_Py_atomic_compare_exchange_uint8(ptr noundef %0, ptr noundef %1, i8 noundef zeroext %2) #3 {
  %4 = alloca ptr, align 8
  %5 = alloca ptr, align 8
  %6 = alloca i8, align 1
  %7 = alloca i8, align 1
  %8 = alloca i8, align 1
  store ptr %0, ptr %4, align 8, !tbaa !49
  store ptr %1, ptr %5, align 8, !tbaa !49
  store i8 %2, ptr %6, align 1, !tbaa !46
  %9 = load ptr, ptr %4, align 8, !tbaa !49
  %10 = load ptr, ptr %5, align 8, !tbaa !49
  %11 = load i8, ptr %6, align 1, !tbaa !46
  store i8 %11, ptr %7, align 1, !tbaa !46
  %12 = load i8, ptr %10, align 1
  %13 = load i8, ptr %7, align 1
  %14 = cmpxchg ptr %9, i8 %12, i8 %13 seq_cst seq_cst, align 1
  %15 = extractvalue { i8, i1 } %14, 0
  %16 = extractvalue { i8, i1 } %14, 1
  br i1 %16, label %18, label %17

17:                                               ; preds = %3
  store i8 %15, ptr %10, align 1
  br label %18

18:                                               ; preds = %17, %3
  %19 = zext i1 %16 to i8
  store i8 %19, ptr %8, align 1, !tbaa !70
  %20 = load i8, ptr %8, align 1, !tbaa !70, !range !52, !noundef !53
  %21 = trunc i8 %20 to i1
  %22 = zext i1 %21 to i32
  ret i32 %22
}

; Function Attrs: inlinehint nounwind uwtable
define internal void @_PyMutex_Unlock(ptr noundef %0) #3 {
  %2 = alloca ptr, align 8
  %3 = alloca i8, align 1
  store ptr %0, ptr %2, align 8, !tbaa !68
  call void @llvm.lifetime.start.p0(i64 1, ptr %3) #6
  store i8 1, ptr %3, align 1, !tbaa !46
  %4 = load ptr, ptr %2, align 8, !tbaa !68
  %5 = getelementptr inbounds nuw %struct.PyMutex, ptr %4, i32 0, i32 0
  %6 = call i32 @_Py_atomic_compare_exchange_uint8(ptr noundef %5, ptr noundef %3, i8 noundef zeroext 0)
  %7 = icmp ne i32 %6, 0
  br i1 %7, label %10, label %8

8:                                                ; preds = %1
  %9 = load ptr, ptr %2, align 8, !tbaa !68
  call void @PyMutex_Unlock(ptr noundef %9)
  br label %10

10:                                               ; preds = %8, %1
  call void @llvm.lifetime.end.p0(i64 1, ptr %3) #6
  ret void
}

; Function Attrs: inlinehint nounwind uwtable
define internal void @_PyMutex_Lock(ptr noundef %0) #3 {
  %2 = alloca ptr, align 8
  %3 = alloca i8, align 1
  store ptr %0, ptr %2, align 8, !tbaa !68
  call void @llvm.lifetime.start.p0(i64 1, ptr %3) #6
  store i8 0, ptr %3, align 1, !tbaa !46
  %4 = load ptr, ptr %2, align 8, !tbaa !68
  %5 = getelementptr inbounds nuw %struct.PyMutex, ptr %4, i32 0, i32 0
  %6 = call i32 @_Py_atomic_compare_exchange_uint8(ptr noundef %5, ptr noundef %3, i8 noundef zeroext 1)
  %7 = icmp ne i32 %6, 0
  br i1 %7, label %10, label %8

8:                                                ; preds = %1
  %9 = load ptr, ptr %2, align 8, !tbaa !68
  call void @PyMutex_Lock(ptr noundef %9)
  br label %10

10:                                               ; preds = %8, %1
  call void @llvm.lifetime.end.p0(i64 1, ptr %3) #6
  ret void
}

; Function Attrs: nounwind uwtable
define internal ptr @SHA1Type_digest_impl(ptr noundef %0) #0 {
  %2 = alloca ptr, align 8
  %3 = alloca [20 x i8], align 16
  store ptr %0, ptr %2, align 8, !tbaa !8
  call void @llvm.lifetime.start.p0(i64 20, ptr %3) #6
  %4 = load ptr, ptr %2, align 8, !tbaa !8
  %5 = getelementptr inbounds nuw %struct.SHA1object, ptr %4, i32 0, i32 1
  %6 = load i8, ptr %5, align 8, !tbaa !47, !range !52, !noundef !53
  %7 = trunc i8 %6 to i1
  br i1 %7, label %8, label %11

8:                                                ; preds = %1
  %9 = load ptr, ptr %2, align 8, !tbaa !8
  %10 = getelementptr inbounds nuw %struct.SHA1object, ptr %9, i32 0, i32 2
  call void @_PyMutex_Lock(ptr noundef %10)
  br label %11

11:                                               ; preds = %8, %1
  %12 = load ptr, ptr %2, align 8, !tbaa !8
  %13 = getelementptr inbounds nuw %struct.SHA1object, ptr %12, i32 0, i32 4
  %14 = load ptr, ptr %13, align 8, !tbaa !25
  %15 = getelementptr inbounds [20 x i8], ptr %3, i64 0, i64 0
  call void @python_hashlib_Hacl_Hash_SHA1_digest(ptr noundef %14, ptr noundef %15)
  %16 = load ptr, ptr %2, align 8, !tbaa !8
  %17 = getelementptr inbounds nuw %struct.SHA1object, ptr %16, i32 0, i32 1
  %18 = load i8, ptr %17, align 8, !tbaa !47, !range !52, !noundef !53
  %19 = trunc i8 %18 to i1
  br i1 %19, label %20, label %23

20:                                               ; preds = %11
  %21 = load ptr, ptr %2, align 8, !tbaa !8
  %22 = getelementptr inbounds nuw %struct.SHA1object, ptr %21, i32 0, i32 2
  call void @_PyMutex_Unlock(ptr noundef %22)
  br label %23

23:                                               ; preds = %20, %11
  %24 = getelementptr inbounds [20 x i8], ptr %3, i64 0, i64 0
  %25 = call ptr @PyBytes_FromStringAndSize(ptr noundef %24, i64 noundef 20)
  call void @llvm.lifetime.end.p0(i64 20, ptr %3) #6
  ret ptr %25
}

; Function Attrs: nounwind uwtable
define internal ptr @SHA1Type_digest(ptr noundef %0, ptr noundef %1) #0 {
  %3 = alloca ptr, align 8
  %4 = alloca ptr, align 8
  store ptr %0, ptr %3, align 8, !tbaa !3
  store ptr %1, ptr %4, align 8, !tbaa !3
  %5 = load ptr, ptr %3, align 8, !tbaa !3
  %6 = call ptr @SHA1Type_digest_impl(ptr noundef %5)
  ret ptr %6
}