; Function Attrs: nounwind uwtable
define internal ptr @SHA1Type_digest(ptr noundef %0, ptr readnone captures(none) %1) #0 {
  %3 = alloca [20 x i8], align 16
  call void @llvm.lifetime.start.p0(i64 20, ptr nonnull %3) #3
  %4 = getelementptr inbounds nuw i8, ptr %0, i64 16
  %5 = load i8, ptr %4, align 8, !tbaa !29, !range !51, !noundef !52
  %6 = trunc nuw i8 %5 to i1
  br i1 %6, label %7, label %_PyMutex_Lock.exit.i

7:                                                ; preds = %2
  %8 = getelementptr inbounds nuw i8, ptr %0, i64 17
  %9 = cmpxchg ptr %8, i8 0, i8 1 seq_cst seq_cst, align 1
  %10 = extractvalue { i8, i1 } %9, 1
  br i1 %10, label %_PyMutex_Lock.exit.i, label %11

11:                                               ; preds = %7
  tail call void @PyMutex_Lock(ptr noundef nonnull %8) #3
  br label %_PyMutex_Lock.exit.i

_PyMutex_Lock.exit.i:                             ; preds = %11, %7, %2
  %12 = getelementptr inbounds nuw i8, ptr %0, i64 32
  %13 = load ptr, ptr %12, align 8, !tbaa !34
  call void @python_hashlib_Hacl_Hash_SHA1_digest(ptr noundef %13, ptr noundef nonnull %3) #3
  %14 = load i8, ptr %4, align 8, !tbaa !29, !range !51, !noundef !52
  %15 = trunc nuw i8 %14 to i1
  br i1 %15, label %16, label %SHA1Type_digest_impl.exit

16:                                               ; preds = %_PyMutex_Lock.exit.i
  %17 = getelementptr inbounds nuw i8, ptr %0, i64 17
  %18 = cmpxchg ptr %17, i8 1, i8 0 seq_cst seq_cst, align 1
  %19 = extractvalue { i8, i1 } %18, 1
  br i1 %19, label %SHA1Type_digest_impl.exit, label %20

20:                                               ; preds = %16
  call void @PyMutex_Unlock(ptr noundef nonnull %17) #3
  br label %SHA1Type_digest_impl.exit

SHA1Type_digest_impl.exit:                        ; preds = %_PyMutex_Lock.exit.i, %16, %20
  %21 = call ptr @PyBytes_FromStringAndSize(ptr noundef nonnull %3, i64 noundef 20) #3
  call void @llvm.lifetime.end.p0(i64 20, ptr nonnull %3) #3
  ret ptr %21
}